webrtc__ZN3rtc6ThreadC1Ev _ZN3rtc6ThreadC1Ev
webrtc__ZN3rtc6Thread5StartEPNS_8RunnableE _ZN3rtc6Thread5StartEPNS_8RunnableE
webrtc__ZN3rtc8LocationC1EPKcS2_ _ZN3rtc8LocationC1EPKcS2_
webrtc__ZN3rtc6Thread14InvokeInternalERKNS_8LocationEPNS_14MessageHandlerE _ZN3rtc6Thread14InvokeInternalERKNS_8LocationEPNS_14MessageHandlerE
webrtc__ZN3rtc14MessageHandlerD2Ev _ZN3rtc14MessageHandlerD2Ev
webrtc__ZN3rtc6Thread6CreateEv _ZN3rtc6Thread6CreateEv
webrtc__ZN6webrtc32CreateBuiltinAudioEncoderFactoryEv _ZN6webrtc32CreateBuiltinAudioEncoderFactoryEv
webrtc__ZN6webrtc32CreateBuiltinAudioDecoderFactoryEv _ZN6webrtc32CreateBuiltinAudioDecoderFactoryEv
webrtc__ZN6webrtc27CreatePeerConnectionFactoryEPN3rtc6ThreadES2_S2_NS0_13scoped_refptrINS_17AudioDeviceModuleEEENS3_INS_19AudioEncoderFactoryEEENS3_INS_19AudioDecoderFactoryEEENSt6__ndk110unique_ptrINS_19VideoEncoderFactoryENSA_14default_deleteISC_EEEENSB_INS_19VideoDecoderFactoryENSD_ISG_EEEENS3_INS_10AudioMixerEEENS3_INS_15AudioProcessingEEE _ZN6webrtc27CreatePeerConnectionFactoryEPN3rtc6ThreadES2_S2_NS0_13scoped_refptrINS_17AudioDeviceModuleEEENS3_INS_19AudioEncoderFactoryEEENS3_INS_19AudioDecoderFactoryEEENSt6__ndk110unique_ptrINS_19VideoEncoderFactoryENSA_14default_deleteISC_EEEENSB_INS_19VideoDecoderFactoryENSD_ISG_EEEENS3_INS_10AudioMixerEEENS3_INS_15AudioProcessingEEE
webrtc__ZN3rtc19BasicNetworkManagerC1Ev _ZN3rtc19BasicNetworkManagerC1Ev
webrtc__ZN3rtc24BasicPacketSocketFactoryC1EPNS_6ThreadE _ZN3rtc24BasicPacketSocketFactoryC1EPNS_6ThreadE
webrtc__ZN3rtc10CleanupSSLEv _ZN3rtc10CleanupSSLEv
webrtc__ZN3rtc13InitializeSSLEv _ZN3rtc13InitializeSSLEv
webrtc__ZN6webrtc17AudioDeviceModule6CreateEiNS0_10AudioLayerE _ZN6webrtc17AudioDeviceModule6CreateEiNS0_10AudioLayerE
webrtc__ZN3rtc17CopyOnWriteBufferC2Emm _ZN3rtc17CopyOnWriteBufferC2Emm
webrtc__ZN3rtc17CopyOnWriteBufferD1Ev _ZN3rtc17CopyOnWriteBufferD1Ev
webrtc__ZN3rtc17CopyOnWriteBufferC1ERKS0_ _ZN3rtc17CopyOnWriteBufferC1ERKS0_
webrtc__ZN3rtc18webrtc_checks_impl8FatalLogEPKciS2_PKNS0_12CheckArgTypeEz _ZN3rtc18webrtc_checks_impl8FatalLogEPKciS2_PKNS0_12CheckArgTypeEz
webrtc__ZN6webrtc10VideoFrameD1Ev _ZN6webrtc10VideoFrameD1Ev
webrtc__ZN3rtc16CreateRandomUuidEv _ZN3rtc16CreateRandomUuidEv
webrtc__ZN7cricket12AudioOptionsC1Ev _ZN7cricket12AudioOptionsC1Ev
webrtc__ZN7cricket12AudioOptionsD1Ev _ZN7cricket12AudioOptionsD1Ev
webrtc_ABGRToI420 ABGRToI420
webrtc_I420ToABGR I420ToABGR
webrtc__ZN6webrtc25MediaStreamTrackInterface10kAudioKindE _ZN6webrtc25MediaStreamTrackInterface10kAudioKindE
webrtc__ZN6webrtc23PeerConnectionInterface16RTCConfigurationC1Ev _ZN6webrtc23PeerConnectionInterface16RTCConfigurationC1Ev
webrtc__ZN7cricket18BasicPortAllocatorC1EPN3rtc14NetworkManagerEPNS1_19PacketSocketFactoryEPN6webrtc14TurnCustomizerEPNS_25RelayPortFactoryInterfaceE _ZN7cricket18BasicPortAllocatorC1EPN3rtc14NetworkManagerEPNS1_19PacketSocketFactoryEPN6webrtc14TurnCustomizerEPNS_25RelayPortFactoryInterfaceE
webrtc__ZNK3rtc17ThreadCheckerImpl19CalledOnValidThreadEv _ZNK3rtc17ThreadCheckerImpl19CalledOnValidThreadEv
webrtc__ZN6webrtc23PeerConnectionInterface16RTCConfigurationD1Ev _ZN6webrtc23PeerConnectionInterface16RTCConfigurationD1Ev
webrtc__ZN6webrtc23PeerConnectionInterface16RTCConfigurationC1ERKS1_ _ZN6webrtc23PeerConnectionInterface16RTCConfigurationC1ERKS1_
webrtc__ZN6webrtc8RTCErrorD1Ev _ZN6webrtc8RTCErrorD1Ev
webrtc__ZN6webrtc18RtpTransceiverInitC1Ev _ZN6webrtc18RtpTransceiverInitC1Ev
webrtc__ZN6webrtc18RtpTransceiverInitD1Ev _ZN6webrtc18RtpTransceiverInitD1Ev
webrtc__ZN6webrtc18RtpTransceiverInitC1ERKS0_ _ZN6webrtc18RtpTransceiverInitC1ERKS0_
webrtc__ZN6webrtc18CreateIceCandidateERKNSt6__ndk112basic_stringIcNS0_11char_traitsIcEENS0_9allocatorIcEEEEiS8_PNS_13SdpParseErrorE _ZN6webrtc18CreateIceCandidateERKNSt6__ndk112basic_stringIcNS0_11char_traitsIcEENS0_9allocatorIcEEEEiS8_PNS_13SdpParseErrorE
webrtc__ZN6webrtc21RtpEncodingParametersD1Ev _ZN6webrtc21RtpEncodingParametersD1Ev
webrtc__ZN6webrtc21RtpEncodingParametersC1ERKS0_ _ZN6webrtc21RtpEncodingParametersC1ERKS0_
webrtc__ZN6webrtc16RtpFecParametersD1Ev _ZN6webrtc16RtpFecParametersD1Ev
webrtc__ZN6webrtc16RtpFecParametersC1ERKS0_ _ZN6webrtc16RtpFecParametersC1ERKS0_
webrtc__ZN6webrtc16RtpRtxParametersD1Ev _ZN6webrtc16RtpRtxParametersD1Ev
webrtc__ZN6webrtc16RtpRtxParametersC1ERKS0_ _ZN6webrtc16RtpRtxParametersC1ERKS0_
webrtc__ZN6webrtc23PeerConnectionInterface9IceServerD1Ev _ZN6webrtc23PeerConnectionInterface9IceServerD1Ev
webrtc__ZN6webrtc23PeerConnectionInterface9IceServerC1ERKS1_ _ZN6webrtc23PeerConnectionInterface9IceServerC1ERKS1_
webrtc__ZN6webrtc32CreateSessionDescriptionObserver9OnFailureERKNSt6__ndk112basic_stringIcNS1_11char_traitsIcEENS1_9allocatorIcEEEE _ZN6webrtc32CreateSessionDescriptionObserver9OnFailureERKNSt6__ndk112basic_stringIcNS1_11char_traitsIcEENS1_9allocatorIcEEEE
webrtc__ZN6webrtc29SetSessionDescriptionObserver9OnFailureERKNSt6__ndk112basic_stringIcNS1_11char_traitsIcEENS1_9allocatorIcEEEE _ZN6webrtc29SetSessionDescriptionObserver9OnFailureERKNSt6__ndk112basic_stringIcNS1_11char_traitsIcEENS1_9allocatorIcEEEE
webrtc__ZN6webrtc13RtpParametersC1ERKS0_ _ZN6webrtc13RtpParametersC1ERKS0_
webrtc__ZN6webrtc13RtpParametersD1Ev _ZN6webrtc13RtpParametersD1Ev
webrtc__ZN6webrtc9RtpSourceC1ERKS0_ _ZN6webrtc9RtpSourceC1ERKS0_
webrtc__ZN6webrtc9RtpSourceD1Ev _ZN6webrtc9RtpSourceD1Ev
webrtc__ZNK6webrtc14RTCStatsReport4CopyEv _ZNK6webrtc14RTCStatsReport4CopyEv
webrtc__ZN3rtc14VideoSinkWantsC1Ev _ZN3rtc14VideoSinkWantsC1Ev
webrtc__ZN3rtc14VideoSinkWantsD1Ev _ZN3rtc14VideoSinkWantsD1Ev
webrtc__ZN6webrtc10VideoFrameC1ERKS0_ _ZN6webrtc10VideoFrameC1ERKS0_
webrtc__ZN3rtc23AdaptedVideoTrackSourceC2Ev _ZN3rtc23AdaptedVideoTrackSourceC2Ev
webrtc__ZN6webrtc10VideoFrame7BuilderC1Ev _ZN6webrtc10VideoFrame7BuilderC1Ev
webrtc__ZN6webrtc10VideoFrame7Builder22set_video_frame_bufferERKN3rtc13scoped_refptrINS_16VideoFrameBufferEEE _ZN6webrtc10VideoFrame7Builder22set_video_frame_bufferERKN3rtc13scoped_refptrINS_16VideoFrameBufferEEE
webrtc__ZN6webrtc10VideoFrame7Builder5buildEv _ZN6webrtc10VideoFrame7Builder5buildEv
webrtc__ZN3rtc23AdaptedVideoTrackSource7OnFrameERKN6webrtc10VideoFrameE _ZN3rtc23AdaptedVideoTrackSource7OnFrameERKN6webrtc10VideoFrameE
webrtc__ZN6webrtc10VideoFrame7BuilderD1Ev _ZN6webrtc10VideoFrame7BuilderD1Ev
webrtc__ZN3rtc23AdaptedVideoTrackSourceD2Ev _ZN3rtc23AdaptedVideoTrackSourceD2Ev
webrtc__ZN3rtc23AdaptedVideoTrackSource8GetStatsEPN6webrtc25VideoTrackSourceInterface5StatsE _ZN3rtc23AdaptedVideoTrackSource8GetStatsEPN6webrtc25VideoTrackSourceInterface5StatsE
webrtc__ZN3rtc23AdaptedVideoTrackSource15AddOrUpdateSinkEPNS_18VideoSinkInterfaceIN6webrtc10VideoFrameEEERKNS_14VideoSinkWantsE _ZN3rtc23AdaptedVideoTrackSource15AddOrUpdateSinkEPNS_18VideoSinkInterfaceIN6webrtc10VideoFrameEEERKNS_14VideoSinkWantsE
webrtc__ZN3rtc23AdaptedVideoTrackSource10RemoveSinkEPNS_18VideoSinkInterfaceIN6webrtc10VideoFrameEEE _ZN3rtc23AdaptedVideoTrackSource10RemoveSinkEPNS_18VideoSinkInterfaceIN6webrtc10VideoFrameEEE
webrtc__ZThn16_N3rtc23AdaptedVideoTrackSource15AddOrUpdateSinkEPNS_18VideoSinkInterfaceIN6webrtc10VideoFrameEEERKNS_14VideoSinkWantsE _ZThn16_N3rtc23AdaptedVideoTrackSource15AddOrUpdateSinkEPNS_18VideoSinkInterfaceIN6webrtc10VideoFrameEEERKNS_14VideoSinkWantsE
webrtc__ZThn16_N3rtc23AdaptedVideoTrackSource10RemoveSinkEPNS_18VideoSinkInterfaceIN6webrtc10VideoFrameEEE _ZThn16_N3rtc23AdaptedVideoTrackSource10RemoveSinkEPNS_18VideoSinkInterfaceIN6webrtc10VideoFrameEEE
webrtc__ZNK6webrtc11StatsReport12TypeToStringEv _ZNK6webrtc11StatsReport12TypeToStringEv
webrtc__ZNK6webrtc11StatsReport5Value12display_nameEv _ZNK6webrtc11StatsReport5Value12display_nameEv
webrtc__ZNK6webrtc11StatsReport5Value8ToStringEv _ZNK6webrtc11StatsReport5Value8ToStringEv
webrtc__ZN3rtc15CriticalSectionC1Ev _ZN3rtc15CriticalSectionC1Ev
webrtc__ZN3rtc5EventC1Ebb _ZN3rtc5EventC1Ebb
webrtc__ZN6webrtc6RandomC1Em _ZN6webrtc6RandomC1Em
webrtc__ZN6webrtc9WavReaderC1ERKNSt6__ndk112basic_stringIcNS1_11char_traitsIcEENS1_9allocatorIcEEEE _ZN6webrtc9WavReaderC1ERKNSt6__ndk112basic_stringIcNS1_11char_traitsIcEENS1_9allocatorIcEEEE
webrtc__ZNK6webrtc9WavReader11sample_rateEv _ZNK6webrtc9WavReader11sample_rateEv
webrtc__ZNK6webrtc9WavReader12num_channelsEv _ZNK6webrtc9WavReader12num_channelsEv
webrtc__ZN6webrtc9WavReaderD1Ev _ZN6webrtc9WavReaderD1Ev
webrtc__ZN6webrtc9WavWriterC1ERKNSt6__ndk112basic_stringIcNS1_11char_traitsIcEENS1_9allocatorIcEEEEim _ZN6webrtc9WavWriterC1ERKNSt6__ndk112basic_stringIcNS1_11char_traitsIcEENS1_9allocatorIcEEEEim
webrtc__ZN6webrtc9WavReaderC1Ei _ZN6webrtc9WavReaderC1Ei
webrtc__ZN6webrtc9WavWriterC1Eiim _ZN6webrtc9WavWriterC1Eiim
webrtc__ZN3rtc15CriticalSectionD1Ev _ZN3rtc15CriticalSectionD1Ev
webrtc__ZN3rtc9CritScopeC1EPKNS_15CriticalSectionE _ZN3rtc9CritScopeC1EPKNS_15CriticalSectionE
webrtc__ZN3rtc9CritScopeD1Ev _ZN3rtc9CritScopeD1Ev
webrtc__ZN6webrtc6Random4RandEii _ZN6webrtc6Random4RandEii
webrtc__ZN6webrtc9WavReader11ReadSamplesEmPs _ZN6webrtc9WavReader11ReadSamplesEmPs
webrtc__ZN6webrtc9WavWriter12WriteSamplesEPKsm _ZN6webrtc9WavWriter12WriteSamplesEPKsm
webrtc__ZN6webrtc9WavWriterD1Ev _ZN6webrtc9WavWriterD1Ev
webrtc__ZN3rtc5Event3SetEv _ZN3rtc5Event3SetEv
webrtc__ZN3rtc14PlatformThread4StopEv _ZN3rtc14PlatformThread4StopEv
webrtc__ZN3rtc5EventD1Ev _ZN3rtc5EventD1Ev
webrtc__ZN3rtc14PlatformThreadC1EPFvPvES1_PKcNS_14ThreadPriorityE _ZN3rtc14PlatformThreadC1EPFvPvES1_PKcNS_14ThreadPriorityE
webrtc__ZN3rtc14PlatformThread5StartEv _ZN3rtc14PlatformThread5StartEv
webrtc__ZN3rtc5Event5ResetEv _ZN3rtc5Event5ResetEv
webrtc__ZN3rtc5Event4WaitEi _ZN3rtc5Event4WaitEi
webrtc__ZN3rtc10TimeMicrosEv _ZN3rtc10TimeMicrosEv
webrtc__ZN3rtc19webrtc_logging_impl3LogEPKNS0_10LogArgTypeEz _ZN3rtc19webrtc_logging_impl3LogEPKNS0_10LogArgTypeEz
webrtc__ZN3rtc6Thread7SleepMsEi _ZN3rtc6Thread7SleepMsEi
webrtc__ZN6webrtc24CreateSessionDescriptionERKNSt6__ndk112basic_stringIcNS0_11char_traitsIcEENS0_9allocatorIcEEEES8_PNS_13SdpParseErrorE _ZN6webrtc24CreateSessionDescriptionERKNSt6__ndk112basic_stringIcNS0_11char_traitsIcEENS0_9allocatorIcEEEES8_PNS_13SdpParseErrorE
webrtc__ZNK6webrtc8RTCError7messageEv _ZNK6webrtc8RTCError7messageEv
webrtc__ZN6webrtc18RtpCodecParametersC1ERKS0_ _ZN6webrtc18RtpCodecParametersC1ERKS0_
webrtc__ZN6webrtc14RtcpParametersC1ERKS0_ _ZN6webrtc14RtcpParametersC1ERKS0_
webrtc__ZN6webrtc14RtcpParametersD1Ev _ZN6webrtc14RtcpParametersD1Ev
webrtc__ZN6webrtc18RtpCodecParametersD1Ev _ZN6webrtc18RtpCodecParametersD1Ev
webrtc__ZN6webrtc12RtpExtensionD1Ev _ZN6webrtc12RtpExtensionD1Ev
webrtc__ZN6webrtc14RTCStatsMemberIiE5kTypeE _ZN6webrtc14RTCStatsMemberIiE5kTypeE
webrtc__ZN6webrtc14RTCStatsMemberIjE5kTypeE _ZN6webrtc14RTCStatsMemberIjE5kTypeE
webrtc__ZN6webrtc14RTCStatsMemberIlE5kTypeE _ZN6webrtc14RTCStatsMemberIlE5kTypeE
webrtc__ZN6webrtc14RTCStatsMemberImE5kTypeE _ZN6webrtc14RTCStatsMemberImE5kTypeE
webrtc__ZN6webrtc14RTCStatsMemberIdE5kTypeE _ZN6webrtc14RTCStatsMemberIdE5kTypeE
webrtc__ZN6webrtc14RTCStatsMemberINSt6__ndk16vectorIiNS1_9allocatorIiEEEEE5kTypeE _ZN6webrtc14RTCStatsMemberINSt6__ndk16vectorIiNS1_9allocatorIiEEEEE5kTypeE
webrtc__ZN6webrtc14RTCStatsMemberINSt6__ndk16vectorIlNS1_9allocatorIlEEEEE5kTypeE _ZN6webrtc14RTCStatsMemberINSt6__ndk16vectorIlNS1_9allocatorIlEEEEE5kTypeE
webrtc__ZN6webrtc14RTCStatsMemberINSt6__ndk16vectorIdNS1_9allocatorIdEEEEE5kTypeE _ZN6webrtc14RTCStatsMemberINSt6__ndk16vectorIdNS1_9allocatorIdEEEEE5kTypeE
webrtc__ZN6webrtc14RTCStatsMemberINSt6__ndk16vectorINS1_12basic_stringIcNS1_11char_traitsIcEENS1_9allocatorIcEEEENS6_IS8_EEEEE5kTypeE _ZN6webrtc14RTCStatsMemberINSt6__ndk16vectorINS1_12basic_stringIcNS1_11char_traitsIcEENS1_9allocatorIcEEEENS6_IS8_EEEEE5kTypeE
webrtc__ZN6webrtc14RTCStatsMemberIbE5kTypeE _ZN6webrtc14RTCStatsMemberIbE5kTypeE
webrtc__ZN6webrtc14RTCStatsMemberINSt6__ndk112basic_stringIcNS1_11char_traitsIcEENS1_9allocatorIcEEEEE5kTypeE _ZN6webrtc14RTCStatsMemberINSt6__ndk112basic_stringIcNS1_11char_traitsIcEENS1_9allocatorIcEEEEE5kTypeE
webrtc__ZN6webrtc14RTCStatsMemberINSt6__ndk16vectorIbNS1_9allocatorIbEEEEE5kTypeE _ZN6webrtc14RTCStatsMemberINSt6__ndk16vectorIbNS1_9allocatorIbEEEEE5kTypeE
webrtc__ZN6webrtc14RTCStatsMemberINSt6__ndk16vectorIjNS1_9allocatorIjEEEEE5kTypeE _ZN6webrtc14RTCStatsMemberINSt6__ndk16vectorIjNS1_9allocatorIjEEEEE5kTypeE
webrtc__ZN6webrtc14RTCStatsMemberINSt6__ndk16vectorImNS1_9allocatorImEEEEE5kTypeE _ZN6webrtc14RTCStatsMemberINSt6__ndk16vectorImNS1_9allocatorImEEEEE5kTypeE
webrtc__ZNK6webrtc8RTCStats7MembersEv _ZNK6webrtc8RTCStats7MembersEv
webrtc__ZNK6webrtc14RTCStatsReport5beginEv _ZNK6webrtc14RTCStatsReport5beginEv
webrtc__ZNK6webrtc14RTCStatsReport3endEv _ZNK6webrtc14RTCStatsReport3endEv
webrtc__ZN6webrtc14RTCStatsReport13ConstIteratorppEv _ZN6webrtc14RTCStatsReport13ConstIteratorppEv
webrtc__ZNK6webrtc14RTCStatsReport13ConstIteratorneERKS1_ _ZNK6webrtc14RTCStatsReport13ConstIteratorneERKS1_
webrtc__ZNK6webrtc14RTCStatsReport13ConstIteratordeEv _ZNK6webrtc14RTCStatsReport13ConstIteratordeEv
webrtc__ZN6webrtc14RTCStatsReport13ConstIteratorD1Ev _ZN6webrtc14RTCStatsReport13ConstIteratorD1Ev
webrtc__ZN6webrtc10I420Buffer6CreateEii _ZN6webrtc10I420Buffer6CreateEii
webrtc__ZN6webrtc10I420Buffer12MutableDataYEv _ZN6webrtc10I420Buffer12MutableDataYEv
webrtc__ZN6webrtc10I420Buffer12MutableDataUEv _ZN6webrtc10I420Buffer12MutableDataUEv
webrtc__ZN6webrtc10I420Buffer12MutableDataVEv _ZN6webrtc10I420Buffer12MutableDataVEv
webrtc__ZN6webrtc23PeerConnectionInterface9IceServerC1Ev _ZN6webrtc23PeerConnectionInterface9IceServerC1Ev
webrtc__ZN6webrtc16VideoFrameBuffer7GetI420Ev _ZN6webrtc16VideoFrameBuffer7GetI420Ev
webrtc__ZNK6webrtc10VideoFrame5widthEv _ZNK6webrtc10VideoFrame5widthEv
webrtc__ZNK6webrtc10VideoFrame6heightEv _ZNK6webrtc10VideoFrame6heightEv
webrtc__ZNK6webrtc10VideoFrame18video_frame_bufferEv _ZNK6webrtc10VideoFrame18video_frame_bufferEv
webrtc__ZN7cricket17MediaTypeToStringENS_9MediaTypeE _ZN7cricket17MediaTypeToStringENS_9MediaTypeE
webrtc__ZN6webrtc25MediaStreamTrackInterface10kVideoKindE _ZN6webrtc25MediaStreamTrackInterface10kVideoKindE
webrtc___dso_handle __dso_handle
webrtc_strlen strlen
webrtc_strrchr strrchr
webrtc_strerror strerror
webrtc___stack_chk_fail __stack_chk_fail
webrtc___cxa_guard_acquire __cxa_guard_acquire
webrtc___cxa_guard_release __cxa_guard_release
webrtc_time time
webrtc___android_log_write __android_log_write
webrtc___sF __sF
webrtc_fwrite fwrite
webrtc___android_log_print __android_log_print
webrtc_fputs fputs
webrtc_fflush fflush
webrtc__ZdlPv _ZdlPv
webrtc__Znwm _Znwm
webrtc_abort abort
webrtc_memmove memmove
webrtc___cxa_atexit __cxa_atexit
webrtc___errno __errno
webrtc_fclose fclose
webrtc_fread fread
webrtc_feof feof
webrtc_fseek fseek
webrtc_memcpy memcpy
webrtc_memcmp memcmp
webrtc___vsnprintf_chk __vsnprintf_chk
webrtc_memset memset
webrtc__Znam _Znam
webrtc__ZdaPv _ZdaPv
webrtc_fdopen fdopen
webrtc_close close
webrtc_open open
webrtc___open_2 __open_2
webrtc_log log
webrtc_cos cos
webrtc_pthread_mutexattr_init pthread_mutexattr_init
webrtc_pthread_mutexattr_settype pthread_mutexattr_settype
webrtc_pthread_mutex_init pthread_mutex_init
webrtc_pthread_mutexattr_destroy pthread_mutexattr_destroy
webrtc_pthread_mutex_destroy pthread_mutex_destroy
webrtc_pthread_mutex_lock pthread_mutex_lock
webrtc_pthread_mutex_unlock pthread_mutex_unlock
webrtc_nanosleep nanosleep
webrtc_clock_gettime clock_gettime
webrtc_gettimeofday gettimeofday
webrtc_sched_yield sched_yield
webrtc_pthread_attr_init pthread_attr_init
webrtc_pthread_attr_setstacksize pthread_attr_setstacksize
webrtc_pthread_attr_destroy pthread_attr_destroy
webrtc_pthread_join pthread_join
webrtc_sched_get_priority_min sched_get_priority_min
webrtc_sched_get_priority_max sched_get_priority_max
webrtc_pthread_setschedparam pthread_setschedparam
webrtc_pthread_create pthread_create
webrtc_pthread_condattr_init pthread_condattr_init
webrtc_pthread_condattr_setclock pthread_condattr_setclock
webrtc_pthread_cond_init pthread_cond_init
webrtc_pthread_condattr_destroy pthread_condattr_destroy
webrtc_pthread_cond_destroy pthread_cond_destroy
webrtc_pthread_cond_broadcast pthread_cond_broadcast
webrtc_pthread_cond_timedwait pthread_cond_timedwait
webrtc_pthread_cond_wait pthread_cond_wait
webrtc__ZNSt6__ndk112__next_primeEm _ZNSt6__ndk112__next_primeEm
webrtc___cxa_pure_virtual __cxa_pure_virtual
webrtc_sscanf sscanf
webrtc_memchr memchr
webrtc_strncmp strncmp
webrtc__ZNSt6__ndk19to_stringEi _ZNSt6__ndk19to_stringEi
webrtc_strcmp strcmp
webrtc_fopen fopen
webrtc_setvbuf setvbuf
webrtc_ftell ftell
webrtc_fileno fileno
webrtc_fstat fstat
webrtc_pthread_getspecific pthread_getspecific
webrtc_pthread_self pthread_self
webrtc_pthread_key_create pthread_key_create
webrtc_pthread_setspecific pthread_setspecific
webrtc_if_indextoname if_indextoname
webrtc_strncpy strncpy
webrtc_socket socket
webrtc_ioctl ioctl
webrtc___memcpy_chk __memcpy_chk
webrtc_sendto sendto
webrtc_recvfrom recvfrom
webrtc___udivti3 __udivti3
webrtc_read read
webrtc_perror perror
webrtc_dup dup
webrtc_fcntl fcntl
webrtc_syscall syscall
webrtc_free free
webrtc_malloc malloc
webrtc_vsnprintf vsnprintf
webrtc_pthread_rwlock_init pthread_rwlock_init
webrtc_pthread_rwlock_rdlock pthread_rwlock_rdlock
webrtc_pthread_rwlock_wrlock pthread_rwlock_wrlock
webrtc_pthread_rwlock_unlock pthread_rwlock_unlock
webrtc_pthread_rwlock_destroy pthread_rwlock_destroy
webrtc_pthread_once pthread_once
webrtc_slCreateEngine slCreateEngine
webrtc_SL_IID_ENGINE SL_IID_ENGINE
webrtc_SL_IID_ANDROIDCONFIGURATION SL_IID_ANDROIDCONFIGURATION
webrtc_SL_IID_BUFFERQUEUE SL_IID_BUFFERQUEUE
webrtc_SL_IID_VOLUME SL_IID_VOLUME
webrtc_SL_IID_PLAY SL_IID_PLAY
webrtc_SL_IID_ANDROIDSIMPLEBUFFERQUEUE SL_IID_ANDROIDSIMPLEBUFFERQUEUE
webrtc_SL_IID_RECORD SL_IID_RECORD
webrtc_strcasecmp strcasecmp
webrtc_tolower tolower
webrtc_islower islower
webrtc__ZNSt6__ndk18ios_base4initEPv _ZNSt6__ndk18ios_base4initEPv
webrtc__ZNKSt6__ndk18ios_base6getlocEv _ZNKSt6__ndk18ios_base6getlocEv
webrtc__ZNSt6__ndk17num_putIcNS_19ostreambuf_iteratorIcNS_11char_traitsIcEEEEE2idE _ZNSt6__ndk17num_putIcNS_19ostreambuf_iteratorIcNS_11char_traitsIcEEEEE2idE
webrtc__ZNKSt6__ndk16locale9use_facetERNS0_2idE _ZNKSt6__ndk16locale9use_facetERNS0_2idE
webrtc__ZNSt6__ndk16localeD1Ev _ZNSt6__ndk16localeD1Ev
webrtc__ZNSt6__ndk15ctypeIcE2idE _ZNSt6__ndk15ctypeIcE2idE
webrtc__ZNSt6__ndk18ios_base5clearEj _ZNSt6__ndk18ios_base5clearEj
webrtc__ZNSt6__ndk18ios_baseD2Ev _ZNSt6__ndk18ios_baseD2Ev
webrtc__ZNSt6__ndk16localeC1Ev _ZNSt6__ndk16localeC1Ev
webrtc__ZSt18uncaught_exceptionv _ZSt18uncaught_exceptionv
webrtc_strtod strtod
webrtc_strtoll strtoll
webrtc_strtoull strtoull
webrtc_gettid gettid
webrtc_pthread_equal pthread_equal
webrtc_prctl prctl
webrtc_pipe pipe
webrtc___read_chk __read_chk
webrtc_sigemptyset sigemptyset
webrtc_sigaddset sigaddset
webrtc_pthread_sigmask pthread_sigmask
webrtc_write write
webrtc_calloc calloc
webrtc_realloc realloc
webrtc_socketpair socketpair
webrtc_getuid getuid
webrtc_geteuid geteuid
webrtc_getgid getgid
webrtc_getegid getegid
webrtc_getenv getenv
webrtc_exit exit
webrtc_fprintf fprintf
webrtc_poll poll
webrtc_random random
webrtc_select select
webrtc_recv recv
webrtc_sigfillset sigfillset
webrtc_sigaction sigaction
webrtc_send send
webrtc_epoll_create epoll_create
webrtc_epoll_ctl epoll_ctl
webrtc_epoll_wait epoll_wait
webrtc_getaddrinfo getaddrinfo
webrtc_freeaddrinfo freeaddrinfo
webrtc_inet_ntop inet_ntop
webrtc_inet_pton inet_pton
webrtc_getsockopt getsockopt
webrtc_getsockname getsockname
webrtc_getpeername getpeername
webrtc_bind bind
webrtc_connect connect
webrtc_setsockopt setsockopt
webrtc_listen listen
webrtc_accept accept
webrtc___FD_ISSET_chk __FD_ISSET_chk
webrtc___FD_CLR_chk __FD_CLR_chk
webrtc___FD_SET_chk __FD_SET_chk
webrtc_strtoul strtoul
webrtc_strncasecmp strncasecmp
webrtc_toupper toupper
webrtc_strspn strspn
webrtc_strchr strchr
webrtc_bsearch bsearch
webrtc_qsort qsort
webrtc_isspace isspace
webrtc_log10f log10f
webrtc_expf expf
webrtc_powf powf
webrtc_sincosf sincosf
webrtc_logf logf
webrtc___memmove_chk __memmove_chk
webrtc__ZSt7nothrow _ZSt7nothrow
webrtc__ZnwmRKSt9nothrow_t _ZnwmRKSt9nothrow_t
webrtc___memset_chk __memset_chk
webrtc_lrint lrint
webrtc_sincos sincos
webrtc_sin sin
webrtc_exp exp
webrtc___vsprintf_chk __vsprintf_chk
webrtc_gmtime_r gmtime_r
webrtc_isxdigit isxdigit
webrtc_isdigit isdigit
webrtc_getauxval getauxval
webrtc_sysconf sysconf
webrtc_cosf cosf
webrtc_pow pow
webrtc_strnlen strnlen
webrtc_strtol strtol
webrtc_lrintf lrintf
webrtc_log10 log10
webrtc__ZNSt6__ndk15mutex4lockEv _ZNSt6__ndk15mutex4lockEv
webrtc__ZNSt6__ndk15mutex6unlockEv _ZNSt6__ndk15mutex6unlockEv
webrtc__ZNSt6__ndk15mutexD1Ev _ZNSt6__ndk15mutexD1Ev
webrtc_snprintf snprintf
webrtc__ZNSt6__ndk111__call_onceERVmPvPFvS2_E _ZNSt6__ndk111__call_onceERVmPvPFvS2_E
webrtc_asin asin
webrtc_exp2f exp2f
webrtc_expm1 expm1
webrtc_pthread_mutex_trylock pthread_mutex_trylock
webrtc_localtime_r localtime_r
webrtc___strncpy_chk2 __strncpy_chk2
webrtc_log2f log2f
webrtc_getpid getpid
webrtc_srandom srandom
webrtc___strchr_chk __strchr_chk
webrtc_rand rand
